target datalayout = "e-m:e-p270:32:32-p271:32:32-p272:64:64-i64:64-i128:128-f80:128-n8:16:32:64-S128"
target triple = "x86_64-pc-linux-gnu"

%"class.std::__cxx11::basic_string" = type { %"struct.std::__cxx11::basic_string<char>::_Alloc_hider", i64, %union.anon }
%"struct.std::__cxx11::basic_string<char>::_Alloc_hider" = type { ptr }
%union.anon = type { i64, [8 x i8] }

; Function Attrs: noinline noreturn nounwind uwtable
define linkonce_odr hidden void @__clang_call_terminate(ptr noundef %0) #10 comdat {
  %2 = call ptr @__cxa_begin_catch(ptr %0) #5
  call void @_ZSt9terminatev() #21
  unreachable
}

; Function Attrs: mustprogress nounwind uwtable
define available_externally noundef ptr @_ZNKSt7__cxx1112basic_stringIcSt11char_traitsIcESaIcEE7_M_dataEv(ptr noundef nonnull align 8 dereferenceable(32) %0) #2 align 2 {
  %2 = alloca ptr, align 8
  store ptr %0, ptr %2, align 8, !tbaa !13
  %3 = load ptr, ptr %2, align 8
  %4 = getelementptr inbounds nuw %"class.std::__cxx11::basic_string", ptr %3, i32 0, i32 0
  %5 = getelementptr inbounds nuw %"struct.std::__cxx11::basic_string<char>::_Alloc_hider", ptr %4, i32 0, i32 0
  %6 = load ptr, ptr %5, align 8, !tbaa !184
  ret ptr %6
}

; Function Attrs: mustprogress nounwind uwtable
define available_externally noundef nonnull align 1 dereferenceable(1) ptr @_ZNKSt7__cxx1112basic_stringIcSt11char_traitsIcESaIcEEixEm(ptr noundef nonnull align 8 dereferenceable(32) %0, i64 noundef %1) #2 align 2 personality ptr @__gxx_personality_v0 {
  %3 = alloca ptr, align 8
  %4 = alloca i64, align 8
  store ptr %0, ptr %3, align 8, !tbaa !13
  store i64 %1, ptr %4, align 8, !tbaa !9
  %5 = load ptr, ptr %3, align 8
  br label %6

6:                                                ; preds = %2
  br label %7

7:                                                ; preds = %6
  br label %8

8:                                                ; preds = %7
  %9 = invoke noundef ptr @_ZNKSt7__cxx1112basic_stringIcSt11char_traitsIcESaIcEE7_M_dataEv(ptr noundef nonnull align 8 dereferenceable(32) %5)
          to label %10 unwind label %13

10:                                               ; preds = %8
  %11 = load i64, ptr %4, align 8, !tbaa !9
  %12 = getelementptr inbounds nuw i8, ptr %9, i64 %11
  ret ptr %12

13:                                               ; preds = %8
  %14 = landingpad { ptr, i32 }
          catch ptr null
  %15 = extractvalue { ptr, i32 } %14, 0
  call void @__clang_call_terminate(ptr %15) #21
  unreachable
}

; Function Attrs: mustprogress nounwind uwtable
define internal noundef zeroext i1 @_ZN7rocksdb12_GLOBAL__N_114MatchesDecimalERKNSt7__cxx1112basic_stringIcSt11char_traitsIcESaIcEEEmm(ptr noundef nonnull align 8 dereferenceable(32) %0, i64 noundef %1, i64 noundef %2) #2 {
  %4 = alloca i1, align 1
  %5 = alloca ptr, align 8
  %6 = alloca i64, align 8
  %7 = alloca i64, align 8
  %8 = alloca i32, align 4
  %9 = alloca i8, align 1
  %10 = alloca i32, align 4
  store ptr %0, ptr %5, align 8, !tbaa !13
  store i64 %1, ptr %6, align 8, !tbaa !9
  store i64 %2, ptr %7, align 8, !tbaa !9
  call void @llvm.lifetime.start.p0(i64 4, ptr %8) #5
  store i32 0, ptr %8, align 4, !tbaa !19
  %11 = load ptr, ptr %5, align 8, !tbaa !13
  %12 = load i64, ptr %6, align 8, !tbaa !9
  %13 = call noundef nonnull align 1 dereferenceable(1) ptr @_ZNKSt7__cxx1112basic_stringIcSt11char_traitsIcESaIcEEixEm(ptr noundef nonnull align 8 dereferenceable(32) %11, i64 noundef %12) #5
  %14 = load i8, ptr %13, align 1, !tbaa !21
  %15 = sext i8 %14 to i32
  %16 = icmp eq i32 %15, 45
  br i1 %16, label %17, label %20

17:                                               ; preds = %3
  %18 = load i64, ptr %6, align 8, !tbaa !9
  %19 = add i64 %18, 1
  store i64 %19, ptr %6, align 8, !tbaa !9
  br label %20

20:                                               ; preds = %17, %3
  call void @llvm.lifetime.start.p0(i64 1, ptr %9) #5
  store i8 0, ptr %9, align 1, !tbaa !24
  br label %21

21:                                               ; preds = %53, %20
  %22 = load i64, ptr %6, align 8, !tbaa !9
  %23 = load i64, ptr %7, align 8, !tbaa !9
  %24 = icmp ult i64 %22, %23
  br i1 %24, label %26, label %25

25:                                               ; preds = %21
  store i32 2, ptr %10, align 4
  br label %56

26:                                               ; preds = %21
  %27 = load ptr, ptr %5, align 8, !tbaa !13
  %28 = load i64, ptr %6, align 8, !tbaa !9
  %29 = call noundef nonnull align 1 dereferenceable(1) ptr @_ZNKSt7__cxx1112basic_stringIcSt11char_traitsIcESaIcEEixEm(ptr noundef nonnull align 8 dereferenceable(32) %27, i64 noundef %28) #5
  %30 = load i8, ptr %29, align 1, !tbaa !21
  %31 = sext i8 %30 to i32
  %32 = icmp eq i32 %31, 46
  br i1 %32, label %33, label %39

33:                                               ; preds = %26
  %34 = load i8, ptr %9, align 1, !tbaa !24, !range !26, !noundef !27
  %35 = trunc i8 %34 to i1
  br i1 %35, label %36, label %37

36:                                               ; preds = %33
  store i1 false, ptr %4, align 1
  store i32 1, ptr %10, align 4
  br label %56

37:                                               ; preds = %33
  store i8 1, ptr %9, align 1, !tbaa !24
  br label %38

38:                                               ; preds = %37
  br label %52

39:                                               ; preds = %26
  %40 = load ptr, ptr %5, align 8, !tbaa !13
  %41 = load i64, ptr %6, align 8, !tbaa !9
  %42 = call noundef nonnull align 1 dereferenceable(1) ptr @_ZNKSt7__cxx1112basic_stringIcSt11char_traitsIcESaIcEEixEm(ptr noundef nonnull align 8 dereferenceable(32) %40, i64 noundef %41) #5
  %43 = load i8, ptr %42, align 1, !tbaa !21
  %44 = sext i8 %43 to i32
  %45 = call i32 @isdigit(i32 noundef %44) #20
  %46 = icmp ne i32 %45, 0
  br i1 %46, label %48, label %47

47:                                               ; preds = %39
  store i1 false, ptr %4, align 1
  store i32 1, ptr %10, align 4
  br label %56

48:                                               ; preds = %39
  %49 = load i32, ptr %8, align 4, !tbaa !19
  %50 = add nsw i32 %49, 1
  store i32 %50, ptr %8, align 4, !tbaa !19
  br label %51

51:                                               ; preds = %48
  br label %52

52:                                               ; preds = %51, %38
  br label %53

53:                                               ; preds = %52
  %54 = load i64, ptr %6, align 8, !tbaa !9
  %55 = add i64 %54, 1
  store i64 %55, ptr %6, align 8, !tbaa !9
  br label %21, !llvm.loop !28

56:                                               ; preds = %47, %36, %25
  call void @llvm.lifetime.end.p0(i64 1, ptr %9) #5
  %57 = load i32, ptr %10, align 4
  switch i32 %57, label %61 [
    i32 2, label %58
  ]

58:                                               ; preds = %56
  %59 = load i32, ptr %8, align 4, !tbaa !19
  %60 = icmp sgt i32 %59, 0
  store i1 %60, ptr %4, align 1
  store i32 1, ptr %10, align 4
  br label %61

61:                                               ; preds = %58, %56
  call void @llvm.lifetime.end.p0(i64 4, ptr %8) #5
  %62 = load i1, ptr %4, align 1
  ret i1 %62
}