; Function Attrs: mustprogress nofree norecurse nosync nounwind willreturn memory(argmem: read) uwtable
define internal fastcc noundef zeroext i1 @_ZN7rocksdb12_GLOBAL__N_114MatchesDecimalERKNSt7__cxx1112basic_stringIcSt11char_traitsIcESaIcEEEmm(ptr readonly captures(none) %.0.val, i64 noundef %0, i64 noundef %1) unnamed_addr #3 personality ptr @__gxx_personality_v0 {
  %3 = getelementptr inbounds nuw i8, ptr %.0.val, i64 %0
  %4 = load i8, ptr %3, align 1, !tbaa !13
  %5 = icmp eq i8 %4, 45
  %6 = zext i1 %5 to i64
  %spec.select = add i64 %0, %6
  %.not1.not = icmp ult i64 %spec.select, %1
  br i1 %.not1.not, label %.lr.ph, label %._crit_edge

.lr.ph:                                           ; preds = %2, %15
  %.0144 = phi i1 [ %.1, %15 ], [ false, %2 ]
  %.0153 = phi i32 [ %.116, %15 ], [ 0, %2 ]
  %.1202 = phi i64 [ %16, %15 ], [ %spec.select, %2 ]
  %7 = getelementptr inbounds nuw i8, ptr %.0.val, i64 %.1202
  %8 = load i8, ptr %7, align 1, !tbaa !13
  %9 = icmp eq i8 %8, 46
  br i1 %9, label %10, label %11

10:                                               ; preds = %.lr.ph
  br i1 %.0144, label %._crit_edge.loopexit, label %15

11:                                               ; preds = %.lr.ph
  %12 = sext i8 %8 to i32
  %isdigittmp = add nsw i32 %12, -48
  %isdigit = icmp ult i32 %isdigittmp, 10
  br i1 %isdigit, label %13, label %._crit_edge.loopexit

13:                                               ; preds = %11
  %14 = add nsw i32 %.0153, 1
  br label %15

15:                                               ; preds = %10, %13
  %.116 = phi i32 [ %14, %13 ], [ %.0153, %10 ]
  %.1 = phi i1 [ %.0144, %13 ], [ true, %10 ]
  %16 = add nuw i64 %.1202, 1
  %.not.not = icmp ult i64 %16, %1
  br i1 %.not.not, label %.lr.ph, label %._crit_edge.loopexit, !llvm.loop !16

._crit_edge.loopexit:                             ; preds = %11, %10, %15
  %.015.lcssa.ph = phi i32 [ %.116, %15 ], [ %.0153, %10 ], [ %.0153, %11 ]
  %.not.lcssa.ph = phi i1 [ true, %15 ], [ false, %10 ], [ false, %11 ]
  %17 = icmp sgt i32 %.015.lcssa.ph, 0
  %18 = select i1 %.not.lcssa.ph, i1 %17, i1 false
  br label %._crit_edge

._crit_edge:                                      ; preds = %._crit_edge.loopexit, %2
  %.not.lcssa = phi i1 [ false, %2 ], [ %18, %._crit_edge.loopexit ]
  ret i1 %.not.lcssa
}